target datalayout = "e-m:e-p270:32:32-p271:32:32-p272:64:64-i64:64-i128:128-f80:128-n8:16:32:64-S128"
target triple = "x86_64-unknown-linux-gnu"

@.str.5 = private unnamed_addr constant [18 x i8] c"background_thread\00", align 1

; Function Attrs: nounwind uwtable
define dso_local void @set_jemalloc_bg_thread(i32 noundef %enable) #0 {
entry:
  %enable.addr = alloca i32, align 4
  %val = alloca i8, align 1
  store i32 %enable, ptr %enable.addr, align 4
  %0 = load i32, ptr %enable.addr, align 4
  %tobool = icmp ne i32 %0, 0
  %lnot = xor i1 %tobool, true
  %lnot1 = xor i1 %lnot, true
  %lnot.ext = zext i1 %lnot1 to i32
  %conv = trunc i32 %lnot.ext to i8
  store i8 %conv, ptr %val, align 1
  %call = call i32 @je_mallctl(ptr noundef @.str.5, ptr noundef null, ptr noundef null, ptr noundef %val, i64 noundef 1) #12
  ret void
}