; Function Attrs: nounwind uwtable
define dso_local void @set_jemalloc_bg_thread(i32 noundef %enable) local_unnamed_addr #3 {
entry:
  %val = alloca i8, align 1
  %tobool = icmp ne i32 %enable, 0
  %conv = zext i1 %tobool to i8
  store i8 %conv, ptr %val, align 1
  %call = call i32 @je_mallctl(ptr noundef nonnull @.str.5, ptr noundef null, ptr noundef null, ptr noundef nonnull %val, i64 noundef 1) #24
  ret void
}